target datalayout = "e-m:e-p270:32:32-p271:32:32-p272:64:64-i64:64-i128:128-f80:128-n8:16:32:64-S128"
target triple = "x86_64-pc-linux-gnu"

%struct.SDL_Surface = type { i32, i32, i32, i32, i32, ptr, i32, ptr, i32, i32, ptr, i32, ptr, i32, ptr, i32, %struct.SDL_Rect, %struct.SDL_BlitMap }
%struct.SDL_Rect = type { i32, i32, i32, i32 }
%struct.SDL_BlitMap = type { i32, ptr, ptr, %struct.SDL_BlitInfo, i32, i32 }
%struct.SDL_BlitInfo = type { ptr, ptr, i32, i32, i32, i32, ptr, ptr, i32, i32, i32, i32, ptr, ptr, ptr, ptr, ptr, ptr, i32, i32, i8, i8, i8, i8 }

@SDL_surface_magic = internal global i8 0, align 1
@.str = private unnamed_addr constant [26 x i8] c"Parameter '%s' is invalid\00", align 1
@.str.5 = private unnamed_addr constant [8 x i8] c"surface\00", align 1

; Function Attrs: nounwind uwtable
define hidden zeroext i1 @SDL_SurfaceValid(ptr noundef %0) #0 {
  %2 = alloca ptr, align 8
  store ptr %0, ptr %2, align 8
  %3 = load ptr, ptr %2, align 8
  %4 = icmp ne ptr %3, null
  br i1 %4, label %5, label %10

5:                                                ; preds = %1
  %6 = load ptr, ptr %2, align 8
  %7 = getelementptr inbounds nuw %struct.SDL_Surface, ptr %6, i32 0, i32 7
  %8 = load ptr, ptr %7, align 8
  %9 = icmp eq ptr %8, @SDL_surface_magic
  br label %10

10:                                               ; preds = %5, %1
  %11 = phi i1 [ false, %1 ], [ %9, %5 ]
  ret i1 %11
}

; Function Attrs: nounwind uwtable
define hidden zeroext i1 @SDL_GetSurfaceColorMod_REAL(ptr noundef %0, ptr noundef %1, ptr noundef %2, ptr noundef %3) #0 {
  %5 = alloca i1, align 1
  %6 = alloca ptr, align 8
  %7 = alloca ptr, align 8
  %8 = alloca ptr, align 8
  %9 = alloca ptr, align 8
  store ptr %0, ptr %6, align 8
  store ptr %1, ptr %7, align 8
  store ptr %2, ptr %8, align 8
  store ptr %3, ptr %9, align 8
  %10 = load ptr, ptr %6, align 8
  %11 = call zeroext i1 @SDL_SurfaceValid(ptr noundef %10)
  br i1 %11, label %29, label %12

12:                                               ; preds = %4
  %13 = load ptr, ptr %7, align 8
  %14 = icmp ne ptr %13, null
  br i1 %14, label %15, label %17

15:                                               ; preds = %12
  %16 = load ptr, ptr %7, align 8
  store i8 -1, ptr %16, align 1
  br label %17

17:                                               ; preds = %15, %12
  %18 = load ptr, ptr %8, align 8
  %19 = icmp ne ptr %18, null
  br i1 %19, label %20, label %22

20:                                               ; preds = %17
  %21 = load ptr, ptr %8, align 8
  store i8 -1, ptr %21, align 1
  br label %22

22:                                               ; preds = %20, %17
  %23 = load ptr, ptr %9, align 8
  %24 = icmp ne ptr %23, null
  br i1 %24, label %25, label %27

25:                                               ; preds = %22
  %26 = load ptr, ptr %9, align 8
  store i8 -1, ptr %26, align 1
  br label %27

27:                                               ; preds = %25, %22
  %28 = call zeroext i1 (ptr, ...) @SDL_SetError_REAL(ptr noundef @.str, ptr noundef @.str.5)
  store i1 %28, ptr %5, align 1
  br label %60

29:                                               ; preds = %4
  %30 = load ptr, ptr %7, align 8
  %31 = icmp ne ptr %30, null
  br i1 %31, label %32, label %39

32:                                               ; preds = %29
  %33 = load ptr, ptr %6, align 8
  %34 = getelementptr inbounds nuw %struct.SDL_Surface, ptr %33, i32 0, i32 17
  %35 = getelementptr inbounds nuw %struct.SDL_BlitMap, ptr %34, i32 0, i32 3
  %36 = getelementptr inbounds nuw %struct.SDL_BlitInfo, ptr %35, i32 0, i32 20
  %37 = load i8, ptr %36, align 8
  %38 = load ptr, ptr %7, align 8
  store i8 %37, ptr %38, align 1
  br label %39

39:                                               ; preds = %32, %29
  %40 = load ptr, ptr %8, align 8
  %41 = icmp ne ptr %40, null
  br i1 %41, label %42, label %49

42:                                               ; preds = %39
  %43 = load ptr, ptr %6, align 8
  %44 = getelementptr inbounds nuw %struct.SDL_Surface, ptr %43, i32 0, i32 17
  %45 = getelementptr inbounds nuw %struct.SDL_BlitMap, ptr %44, i32 0, i32 3
  %46 = getelementptr inbounds nuw %struct.SDL_BlitInfo, ptr %45, i32 0, i32 21
  %47 = load i8, ptr %46, align 1
  %48 = load ptr, ptr %8, align 8
  store i8 %47, ptr %48, align 1
  br label %49

49:                                               ; preds = %42, %39
  %50 = load ptr, ptr %9, align 8
  %51 = icmp ne ptr %50, null
  br i1 %51, label %52, label %59

52:                                               ; preds = %49
  %53 = load ptr, ptr %6, align 8
  %54 = getelementptr inbounds nuw %struct.SDL_Surface, ptr %53, i32 0, i32 17
  %55 = getelementptr inbounds nuw %struct.SDL_BlitMap, ptr %54, i32 0, i32 3
  %56 = getelementptr inbounds nuw %struct.SDL_BlitInfo, ptr %55, i32 0, i32 22
  %57 = load i8, ptr %56, align 2
  %58 = load ptr, ptr %9, align 8
  store i8 %57, ptr %58, align 1
  br label %59

59:                                               ; preds = %52, %49
  store i1 true, ptr %5, align 1
  br label %60

60:                                               ; preds = %59, %27
  %61 = load i1, ptr %5, align 1
  ret i1 %61
}