; Function Attrs: nounwind uwtable
define hidden zeroext i1 @SDL_GetSurfaceColorMod_REAL(ptr noundef readonly captures(address_is_null) %0, ptr noundef writeonly captures(address_is_null) %1, ptr noundef writeonly captures(address_is_null) %2, ptr noundef writeonly captures(address_is_null) %3) local_unnamed_addr #2 {
  %.not.i = icmp eq ptr %0, null
  br i1 %.not.i, label %SDL_SurfaceValid.exit.thread, label %SDL_SurfaceValid.exit

SDL_SurfaceValid.exit:                            ; preds = %4
  %5 = getelementptr inbounds nuw i8, ptr %0, i64 40
  %6 = load ptr, ptr %5, align 8
  %7 = icmp eq ptr %6, @SDL_surface_magic
  br i1 %7, label %15, label %SDL_SurfaceValid.exit.thread

SDL_SurfaceValid.exit.thread:                     ; preds = %4, %SDL_SurfaceValid.exit
  %.not = icmp eq ptr %1, null
  br i1 %.not, label %9, label %8

8:                                                ; preds = %SDL_SurfaceValid.exit.thread
  store i8 -1, ptr %1, align 1
  br label %9

9:                                                ; preds = %8, %SDL_SurfaceValid.exit.thread
  %.not22 = icmp eq ptr %2, null
  br i1 %.not22, label %11, label %10

10:                                               ; preds = %9
  store i8 -1, ptr %2, align 1
  br label %11

11:                                               ; preds = %10, %9
  %.not23 = icmp eq ptr %3, null
  br i1 %.not23, label %13, label %12

12:                                               ; preds = %11
  store i8 -1, ptr %3, align 1
  br label %13

13:                                               ; preds = %12, %11
  %14 = tail call zeroext i1 (ptr, ...) @SDL_SetError_REAL(ptr noundef nonnull @.str, ptr noundef nonnull @.str.5) #10
  br label %27

15:                                               ; preds = %SDL_SurfaceValid.exit
  %.not24 = icmp eq ptr %1, null
  br i1 %.not24, label %19, label %16

16:                                               ; preds = %15
  %17 = getelementptr inbounds nuw i8, ptr %0, i64 264
  %18 = load i8, ptr %17, align 8
  store i8 %18, ptr %1, align 1
  br label %19

19:                                               ; preds = %16, %15
  %.not25 = icmp eq ptr %2, null
  br i1 %.not25, label %23, label %20

20:                                               ; preds = %19
  %21 = getelementptr inbounds nuw i8, ptr %0, i64 265
  %22 = load i8, ptr %21, align 1
  store i8 %22, ptr %2, align 1
  br label %23

23:                                               ; preds = %20, %19
  %.not26 = icmp eq ptr %3, null
  br i1 %.not26, label %27, label %24

24:                                               ; preds = %23
  %25 = getelementptr inbounds nuw i8, ptr %0, i64 266
  %26 = load i8, ptr %25, align 2
  store i8 %26, ptr %3, align 1
  br label %27

27:                                               ; preds = %23, %24, %13
  %.0 = phi i1 [ %14, %13 ], [ true, %24 ], [ true, %23 ]
  ret i1 %.0
}